target datalayout = "e-m:e-p270:32:32-p271:32:32-p272:64:64-i64:64-i128:128-f80:128-n8:16:32:64-S128"
target triple = "x86_64-pc-linux-gnu"

%struct.Node = type { i32 }
%union.ListCell = type { ptr }
%struct.Var = type { %struct.Expr, i32, i16, i32, i32, i32, ptr, i32, i32, i32, i16, i32 }
%struct.Expr = type { i32 }
%struct.RangeTblEntry = type { i32, ptr, ptr, i32, i32, i8, i8, i32, i32, ptr, ptr, i8, i32, i32, ptr, ptr, ptr, ptr, ptr, i8, ptr, ptr, ptr, i32, i8, ptr, ptr, ptr, ptr, double, ptr, i8, i8, ptr }
%struct.RangeTblFunction = type { i32, ptr, i32, ptr, ptr, ptr, ptr, ptr }
%struct.List = type { i32, i32, i32, ptr, [0 x %union.ListCell] }

@.str = private unnamed_addr constant [45 x i8] c"relation \22%s\22 does not have a composite type\00", align 1
@.str.1 = private unnamed_addr constant [12 x i8] c"makefuncs.c\00", align 1
@__func__.makeWholeRowVar = private unnamed_addr constant [16 x i8] c"makeWholeRowVar\00", align 1

; Function Attrs: inlinehint nounwind uwtable
define internal ptr @newNode(i64 noundef %0, i32 noundef %1) #2 {
  %3 = alloca i64, align 8
  %4 = alloca i32, align 4
  %5 = alloca ptr, align 8
  store i64 %0, ptr %3, align 8
  store i32 %1, ptr %4, align 4
  call void @llvm.lifetime.start.p0(i64 8, ptr %5) #6
  %6 = load i64, ptr %3, align 8
  %7 = call ptr @palloc0(i64 noundef %6)
  store ptr %7, ptr %5, align 8
  %8 = load i32, ptr %4, align 4
  %9 = load ptr, ptr %5, align 8
  %10 = getelementptr inbounds nuw %struct.Node, ptr %9, i32 0, i32 0
  store i32 %8, ptr %10, align 4
  %11 = load ptr, ptr %5, align 8
  call void @llvm.lifetime.end.p0(i64 8, ptr %5) #6
  ret ptr %11
}

; Function Attrs: inlinehint nounwind uwtable
define internal ptr @list_nth_cell(ptr noundef %0, i32 noundef %1) #2 {
  %3 = alloca ptr, align 8
  %4 = alloca i32, align 4
  store ptr %0, ptr %3, align 8
  store i32 %1, ptr %4, align 4
  %5 = load ptr, ptr %3, align 8
  %6 = getelementptr inbounds nuw %struct.List, ptr %5, i32 0, i32 3
  %7 = load ptr, ptr %6, align 8
  %8 = load i32, ptr %4, align 4
  %9 = sext i32 %8 to i64
  %10 = getelementptr inbounds %union.ListCell, ptr %7, i64 %9
  ret ptr %10
}

; Function Attrs: inlinehint nounwind uwtable
define internal i32 @list_length(ptr noundef %0) #2 {
  %2 = alloca ptr, align 8
  store ptr %0, ptr %2, align 8
  %3 = load ptr, ptr %2, align 8
  %4 = icmp ne ptr %3, null
  br i1 %4, label %5, label %9

5:                                                ; preds = %1
  %6 = load ptr, ptr %2, align 8
  %7 = getelementptr inbounds nuw %struct.List, ptr %6, i32 0, i32 1
  %8 = load i32, ptr %7, align 4
  br label %10

9:                                                ; preds = %1
  br label %10

10:                                               ; preds = %9, %5
  %11 = phi i32 [ %8, %5 ], [ 0, %9 ]
  ret i32 %11
}

; Function Attrs: nounwind uwtable
define dso_local ptr @makeVar(i32 noundef %0, i16 noundef signext %1, i32 noundef %2, i32 noundef %3, i32 noundef %4, i32 noundef %5) #0 {
  %7 = alloca i32, align 4
  %8 = alloca i16, align 2
  %9 = alloca i32, align 4
  %10 = alloca i32, align 4
  %11 = alloca i32, align 4
  %12 = alloca i32, align 4
  %13 = alloca ptr, align 8
  store i32 %0, ptr %7, align 4
  store i16 %1, ptr %8, align 2
  store i32 %2, ptr %9, align 4
  store i32 %3, ptr %10, align 4
  store i32 %4, ptr %11, align 4
  store i32 %5, ptr %12, align 4
  call void @llvm.lifetime.start.p0(i64 8, ptr %13) #6
  %14 = call ptr @newNode(i64 noundef 56, i32 noundef 6)
  store ptr %14, ptr %13, align 8
  %15 = load i32, ptr %7, align 4
  %16 = load ptr, ptr %13, align 8
  %17 = getelementptr inbounds nuw %struct.Var, ptr %16, i32 0, i32 1
  store i32 %15, ptr %17, align 4
  %18 = load i16, ptr %8, align 2
  %19 = load ptr, ptr %13, align 8
  %20 = getelementptr inbounds nuw %struct.Var, ptr %19, i32 0, i32 2
  store i16 %18, ptr %20, align 8
  %21 = load i32, ptr %9, align 4
  %22 = load ptr, ptr %13, align 8
  %23 = getelementptr inbounds nuw %struct.Var, ptr %22, i32 0, i32 3
  store i32 %21, ptr %23, align 4
  %24 = load i32, ptr %10, align 4
  %25 = load ptr, ptr %13, align 8
  %26 = getelementptr inbounds nuw %struct.Var, ptr %25, i32 0, i32 4
  store i32 %24, ptr %26, align 8
  %27 = load i32, ptr %11, align 4
  %28 = load ptr, ptr %13, align 8
  %29 = getelementptr inbounds nuw %struct.Var, ptr %28, i32 0, i32 5
  store i32 %27, ptr %29, align 4
  %30 = load i32, ptr %12, align 4
  %31 = load ptr, ptr %13, align 8
  %32 = getelementptr inbounds nuw %struct.Var, ptr %31, i32 0, i32 7
  store i32 %30, ptr %32, align 8
  %33 = load ptr, ptr %13, align 8
  %34 = getelementptr inbounds nuw %struct.Var, ptr %33, i32 0, i32 8
  store i32 0, ptr %34, align 4
  %35 = load ptr, ptr %13, align 8
  %36 = getelementptr inbounds nuw %struct.Var, ptr %35, i32 0, i32 6
  store ptr null, ptr %36, align 8
  %37 = load i32, ptr %7, align 4
  %38 = load ptr, ptr %13, align 8
  %39 = getelementptr inbounds nuw %struct.Var, ptr %38, i32 0, i32 9
  store i32 %37, ptr %39, align 8
  %40 = load i16, ptr %8, align 2
  %41 = load ptr, ptr %13, align 8
  %42 = getelementptr inbounds nuw %struct.Var, ptr %41, i32 0, i32 10
  store i16 %40, ptr %42, align 4
  %43 = load ptr, ptr %13, align 8
  %44 = getelementptr inbounds nuw %struct.Var, ptr %43, i32 0, i32 11
  store i32 -1, ptr %44, align 8
  %45 = load ptr, ptr %13, align 8
  call void @llvm.lifetime.end.p0(i64 8, ptr %13) #6
  ret ptr %45
}

; Function Attrs: nounwind uwtable
define dso_local ptr @makeWholeRowVar(ptr noundef %0, i32 noundef %1, i32 noundef %2, i1 noundef zeroext %3) #0 {
  %5 = alloca ptr, align 8
  %6 = alloca i32, align 4
  %7 = alloca i32, align 4
  %8 = alloca i8, align 1
  %9 = alloca ptr, align 8
  %10 = alloca i32, align 4
  %11 = alloca ptr, align 8
  store ptr %0, ptr %5, align 8
  store i32 %1, ptr %6, align 4
  store i32 %2, ptr %7, align 4
  %12 = zext i1 %3 to i8
  store i8 %12, ptr %8, align 1
  call void @llvm.lifetime.start.p0(i64 8, ptr %9) #6
  call void @llvm.lifetime.start.p0(i64 4, ptr %10) #6
  call void @llvm.lifetime.start.p0(i64 8, ptr %11) #6
  %13 = load ptr, ptr %5, align 8
  %14 = getelementptr inbounds nuw %struct.RangeTblEntry, ptr %13, i32 0, i32 3
  %15 = load i32, ptr %14, align 8
  switch i32 %15, label %92 [
    i32 0, label %16
    i32 3, label %44
  ]

16:                                               ; preds = %4
  %17 = load ptr, ptr %5, align 8
  %18 = getelementptr inbounds nuw %struct.RangeTblEntry, ptr %17, i32 0, i32 4
  %19 = load i32, ptr %18, align 4
  %20 = call i32 @get_rel_type_id(i32 noundef %19)
  store i32 %20, ptr %10, align 4
  %21 = load i32, ptr %10, align 4
  %22 = icmp ne i32 %21, 0
  br i1 %22, label %39, label %23

23:                                               ; preds = %16
  br label %24

24:                                               ; preds = %23
  br i1 true, label %25, label %27

25:                                               ; preds = %24
  %26 = call zeroext i1 @errstart_cold(i32 noundef 21, ptr noundef null) #7
  br i1 %26, label %29, label %36

27:                                               ; preds = %24
  %28 = call zeroext i1 @errstart(i32 noundef 21, ptr noundef null)
  br i1 %28, label %29, label %36

29:                                               ; preds = %27, %25
  %30 = call i32 @errcode(i32 noundef 151027844)
  %31 = load ptr, ptr %5, align 8
  %32 = getelementptr inbounds nuw %struct.RangeTblEntry, ptr %31, i32 0, i32 4
  %33 = load i32, ptr %32, align 4
  %34 = call ptr @get_rel_name(i32 noundef %33)
  %35 = call i32 (ptr, ...) @errmsg(ptr noundef @.str, ptr noundef %34)
  call void @errfinish(ptr noundef @.str.1, i32 noundef 155, ptr noundef @__func__.makeWholeRowVar)
  br label %36

36:                                               ; preds = %29, %27, %25
  unreachable

37:                                               ; No predecessors!
  br label %38

38:                                               ; preds = %37
  br label %39

39:                                               ; preds = %38, %16
  %40 = load i32, ptr %6, align 4
  %41 = load i32, ptr %10, align 4
  %42 = load i32, ptr %7, align 4
  %43 = call ptr @makeVar(i32 noundef %40, i16 noundef signext 0, i32 noundef %41, i32 noundef -1, i32 noundef 0, i32 noundef %42)
  store ptr %43, ptr %9, align 8
  br label %96

44:                                               ; preds = %4
  %45 = load ptr, ptr %5, align 8
  %46 = getelementptr inbounds nuw %struct.RangeTblEntry, ptr %45, i32 0, i32 19
  %47 = load i8, ptr %46, align 8, !range !4, !noundef !5
  %48 = trunc i8 %47 to i1
  br i1 %48, label %55, label %49

49:                                               ; preds = %44
  %50 = load ptr, ptr %5, align 8
  %51 = getelementptr inbounds nuw %struct.RangeTblEntry, ptr %50, i32 0, i32 18
  %52 = load ptr, ptr %51, align 8
  %53 = call i32 @list_length(ptr noundef %52)
  %54 = icmp ne i32 %53, 1
  br i1 %54, label %55, label %59

55:                                               ; preds = %49, %44
  %56 = load i32, ptr %6, align 4
  %57 = load i32, ptr %7, align 4
  %58 = call ptr @makeVar(i32 noundef %56, i16 noundef signext 0, i32 noundef 2249, i32 noundef -1, i32 noundef 0, i32 noundef %57)
  store ptr %58, ptr %9, align 8
  br label %96

59:                                               ; preds = %49
  %60 = load ptr, ptr %5, align 8
  %61 = getelementptr inbounds nuw %struct.RangeTblEntry, ptr %60, i32 0, i32 18
  %62 = load ptr, ptr %61, align 8
  %63 = call ptr @list_nth_cell(ptr noundef %62, i32 noundef 0)
  %64 = load ptr, ptr %63, align 8
  %65 = getelementptr inbounds nuw %struct.RangeTblFunction, ptr %64, i32 0, i32 1
  %66 = load ptr, ptr %65, align 8
  store ptr %66, ptr %11, align 8
  %67 = load ptr, ptr %11, align 8
  %68 = call i32 @exprType(ptr noundef %67)
  store i32 %68, ptr %10, align 4
  %69 = load i32, ptr %10, align 4
  %70 = call zeroext i1 @type_is_rowtype(i32 noundef %69)
  br i1 %70, label %71, label %76

71:                                               ; preds = %59
  %72 = load i32, ptr %6, align 4
  %73 = load i32, ptr %10, align 4
  %74 = load i32, ptr %7, align 4
  %75 = call ptr @makeVar(i32 noundef %72, i16 noundef signext 0, i32 noundef %73, i32 noundef -1, i32 noundef 0, i32 noundef %74)
  store ptr %75, ptr %9, align 8
  br label %91

76:                                               ; preds = %59
  %77 = load i8, ptr %8, align 1, !range !4, !noundef !5
  %78 = trunc i8 %77 to i1
  br i1 %78, label %79, label %86

79:                                               ; preds = %76
  %80 = load i32, ptr %6, align 4
  %81 = load i32, ptr %10, align 4
  %82 = load ptr, ptr %11, align 8
  %83 = call i32 @exprCollation(ptr noundef %82)
  %84 = load i32, ptr %7, align 4
  %85 = call ptr @makeVar(i32 noundef %80, i16 noundef signext 1, i32 noundef %81, i32 noundef -1, i32 noundef %83, i32 noundef %84)
  store ptr %85, ptr %9, align 8
  br label %90

86:                                               ; preds = %76
  %87 = load i32, ptr %6, align 4
  %88 = load i32, ptr %7, align 4
  %89 = call ptr @makeVar(i32 noundef %87, i16 noundef signext 0, i32 noundef 2249, i32 noundef -1, i32 noundef 0, i32 noundef %88)
  store ptr %89, ptr %9, align 8
  br label %90

90:                                               ; preds = %86, %79
  br label %91

91:                                               ; preds = %90, %71
  br label %96

92:                                               ; preds = %4
  %93 = load i32, ptr %6, align 4
  %94 = load i32, ptr %7, align 4
  %95 = call ptr @makeVar(i32 noundef %93, i16 noundef signext 0, i32 noundef 2249, i32 noundef -1, i32 noundef 0, i32 noundef %94)
  store ptr %95, ptr %9, align 8
  br label %96

96:                                               ; preds = %92, %91, %55, %39
  %97 = load ptr, ptr %9, align 8
  call void @llvm.lifetime.end.p0(i64 8, ptr %11) #6
  call void @llvm.lifetime.end.p0(i64 4, ptr %10) #6
  call void @llvm.lifetime.end.p0(i64 8, ptr %9) #6
  ret ptr %97
}