; Function Attrs: nounwind uwtable
define dso_local noundef ptr @makeWholeRowVar(ptr noundef readonly captures(none) %0, i32 noundef %1, i32 noundef %2, i1 noundef zeroext %3) local_unnamed_addr #0 {
  %5 = getelementptr inbounds nuw i8, ptr %0, i64 24
  %6 = load i32, ptr %5, align 8
  switch i32 %6, label %list_length.exit.thread [
    i32 0, label %7
    i32 3, label %17
  ]

7:                                                ; preds = %4
  %8 = getelementptr inbounds nuw i8, ptr %0, i64 28
  %9 = load i32, ptr %8, align 4
  %10 = tail call i32 @get_rel_type_id(i32 noundef %9) #7
  %.not27 = icmp eq i32 %10, 0
  br i1 %.not27, label %11, label %list_length.exit.thread

11:                                               ; preds = %7
  %12 = tail call zeroext i1 @errstart_cold(i32 noundef 21, ptr noundef null) #8
  tail call void @llvm.assume(i1 %12)
  %13 = tail call i32 @errcode(i32 noundef 151027844) #7
  %14 = load i32, ptr %8, align 4
  %15 = tail call ptr @get_rel_name(i32 noundef %14) #7
  %16 = tail call i32 (ptr, ...) @errmsg(ptr noundef nonnull @.str, ptr noundef %15) #7
  tail call void @errfinish(ptr noundef nonnull @.str.1, i32 noundef 155, ptr noundef nonnull @__func__.makeWholeRowVar) #7
  unreachable

17:                                               ; preds = %4
  %18 = getelementptr inbounds nuw i8, ptr %0, i64 120
  %19 = load i8, ptr %18, align 8, !range !4, !noundef !5
  %20 = trunc nuw i8 %19 to i1
  br i1 %20, label %list_length.exit.thread, label %21

21:                                               ; preds = %17
  %22 = getelementptr inbounds nuw i8, ptr %0, i64 112
  %23 = load ptr, ptr %22, align 8
  %.not.i = icmp eq ptr %23, null
  br i1 %.not.i, label %list_length.exit.thread, label %list_length.exit

list_length.exit:                                 ; preds = %21
  %24 = getelementptr inbounds nuw i8, ptr %23, i64 4
  %25 = load i32, ptr %24, align 4
  %.not = icmp eq i32 %25, 1
  br i1 %.not, label %26, label %list_length.exit.thread

26:                                               ; preds = %list_length.exit
  %27 = getelementptr i8, ptr %23, i64 16
  %.val = load ptr, ptr %27, align 8
  %28 = load ptr, ptr %.val, align 8
  %29 = getelementptr inbounds nuw i8, ptr %28, i64 8
  %30 = load ptr, ptr %29, align 8
  %31 = tail call i32 @exprType(ptr noundef %30) #7
  %32 = tail call zeroext i1 @type_is_rowtype(i32 noundef %31) #7
  %.not54 = xor i1 %3, true
  %brmerge = or i1 %32, %.not54
  %.mux = select i1 %32, i32 %31, i32 2249
  br i1 %brmerge, label %list_length.exit.thread, label %33

33:                                               ; preds = %26
  %34 = tail call i32 @exprCollation(ptr noundef %30) #7
  br label %list_length.exit.thread

list_length.exit.thread:                          ; preds = %26, %4, %17, %list_length.exit, %21, %7, %33
  %.sink48 = phi i16 [ 1, %33 ], [ 0, %7 ], [ 0, %21 ], [ 0, %list_length.exit ], [ 0, %17 ], [ 0, %26 ], [ 0, %4 ]
  %.sink45 = phi i32 [ %31, %33 ], [ %10, %7 ], [ 2249, %21 ], [ 2249, %list_length.exit ], [ 2249, %17 ], [ %.mux, %26 ], [ 2249, %4 ]
  %.sink40 = phi i32 [ %34, %33 ], [ 0, %7 ], [ 0, %21 ], [ 0, %list_length.exit ], [ 0, %17 ], [ 0, %26 ], [ 0, %4 ]
  %35 = tail call noundef ptr @palloc0(i64 noundef 56) #7
  store i32 6, ptr %35, align 4
  %36 = getelementptr inbounds nuw i8, ptr %35, i64 4
  store i32 %1, ptr %36, align 4
  %37 = getelementptr inbounds nuw i8, ptr %35, i64 8
  store i16 %.sink48, ptr %37, align 8
  %38 = getelementptr inbounds nuw i8, ptr %35, i64 12
  store i32 %.sink45, ptr %38, align 4
  %39 = getelementptr inbounds nuw i8, ptr %35, i64 16
  store i32 -1, ptr %39, align 8
  %40 = getelementptr inbounds nuw i8, ptr %35, i64 20
  store i32 %.sink40, ptr %40, align 4
  %41 = getelementptr inbounds nuw i8, ptr %35, i64 32
  store i32 %2, ptr %41, align 8
  %42 = getelementptr inbounds nuw i8, ptr %35, i64 36
  store i32 0, ptr %42, align 4
  %43 = getelementptr inbounds nuw i8, ptr %35, i64 24
  store ptr null, ptr %43, align 8
  %44 = getelementptr inbounds nuw i8, ptr %35, i64 40
  store i32 %1, ptr %44, align 8
  %45 = getelementptr inbounds nuw i8, ptr %35, i64 44
  store i16 %.sink48, ptr %45, align 4
  %46 = getelementptr inbounds nuw i8, ptr %35, i64 48
  store i32 -1, ptr %46, align 8
  ret ptr %35
}